; Function Attrs: mustprogress uwtable
define noundef nonnull align 8 dereferenceable(72) ptr @_ZN4YAML7Emitter5WriteERKNS_8_CommentE(ptr noundef nonnull returned align 8 dereferenceable(72) %0, ptr noundef nonnull readonly align 8 captures(none) dereferenceable(32) %1) local_unnamed_addr #0 align 2 {
  %3 = alloca i8, align 1
  %4 = load ptr, ptr %0, align 8, !tbaa !3
  %5 = load i8, ptr %4, align 8, !tbaa !21, !range !39, !noundef !40
  %6 = trunc nuw i8 %5 to i1
  br i1 %6, label %7, label %23

7:                                                ; preds = %2
  tail call void @_ZN4YAML7Emitter11PrepareNodeENS_15EmitterNodeType5valueE(ptr noundef nonnull align 8 dereferenceable(72) %0, i32 noundef 0)
  %8 = getelementptr inbounds nuw i8, ptr %0, i64 8
  %9 = getelementptr inbounds nuw i8, ptr %0, i64 56
  %10 = load i64, ptr %9, align 8, !tbaa !50
  %.not = icmp eq i64 %10, 0
  %.pre5 = load ptr, ptr %0, align 8, !tbaa !3
  br i1 %.not, label %_ZN4YAMLlsERNS_15ostream_wrapperERKNS_11IndentationE.exit, label %11

11:                                               ; preds = %7
  %12 = getelementptr inbounds nuw i8, ptr %.pre5, i64 80
  %13 = load i64, ptr %12, align 8, !tbaa !79
  %.not.i = icmp eq i64 %13, 0
  br i1 %.not.i, label %_ZN4YAMLlsERNS_15ostream_wrapperERKNS_11IndentationE.exit, label %.lr.ph.i

.lr.ph.i:                                         ; preds = %11, %.lr.ph.i
  %.04.i = phi i64 [ %14, %.lr.ph.i ], [ 0, %11 ]
  call void @llvm.lifetime.start.p0(i64 1, ptr nonnull %3)
  store i8 32, ptr %3, align 1, !tbaa !20
  call void @_ZN4YAML15ostream_wrapper5writeEPKcm(ptr noundef nonnull align 8 dereferenceable(57) %8, ptr noundef nonnull %3, i64 noundef 1)
  call void @llvm.lifetime.end.p0(i64 1, ptr nonnull %3)
  %14 = add nuw i64 %.04.i, 1
  %exitcond.not = icmp eq i64 %14, %13
  br i1 %exitcond.not, label %_ZN4YAMLlsERNS_15ostream_wrapperERKNS_11IndentationE.exit.loopexit, label %.lr.ph.i, !llvm.loop !83

_ZN4YAMLlsERNS_15ostream_wrapperERKNS_11IndentationE.exit.loopexit: ; preds = %.lr.ph.i
  %.pre = load ptr, ptr %0, align 8, !tbaa !3
  br label %_ZN4YAMLlsERNS_15ostream_wrapperERKNS_11IndentationE.exit

_ZN4YAMLlsERNS_15ostream_wrapperERKNS_11IndentationE.exit: ; preds = %_ZN4YAMLlsERNS_15ostream_wrapperERKNS_11IndentationE.exit.loopexit, %11, %7
  %15 = phi ptr [ %.pre, %_ZN4YAMLlsERNS_15ostream_wrapperERKNS_11IndentationE.exit.loopexit ], [ %.pre5, %11 ], [ %.pre5, %7 ]
  %16 = load ptr, ptr %1, align 8, !tbaa !45
  %17 = getelementptr inbounds nuw i8, ptr %1, i64 8
  %18 = load i64, ptr %17, align 8, !tbaa !46
  %19 = getelementptr inbounds nuw i8, ptr %15, i64 88
  %20 = load i64, ptr %19, align 8, !tbaa !79
  %21 = call noundef zeroext i1 @_ZN4YAML5Utils12WriteCommentERNS_15ostream_wrapperEPKcmm(ptr noundef nonnull align 8 dereferenceable(57) %8, ptr noundef %16, i64 noundef %18, i64 noundef %20)
  %22 = load ptr, ptr %0, align 8, !tbaa !3
  call void @_ZN4YAML12EmitterState13SetNonContentEv(ptr noundef nonnull align 8 dereferenceable(224) %22)
  br label %23

23:                                               ; preds = %2, %_ZN4YAMLlsERNS_15ostream_wrapperERKNS_11IndentationE.exit
  ret ptr %0
}